; Function Attrs: nofree norecurse nosync nounwind memory(none) uwtable
define nonnull ptr @ff_rtp_enc_name(i32 noundef %0) local_unnamed_addr #3 {
  %2 = icmp eq i32 %0, 0
  br i1 %2, label %._crit_edge, label %.lr.ph

.lr.ph:                                           ; preds = %1, %3
  %indvars.iv13 = phi i64 [ %indvars.iv.next, %3 ], [ 0, %1 ]
  %indvars.iv.next = add nuw nsw i64 %indvars.iv13, 1
  %exitcond.not = icmp eq i64 %indvars.iv.next, 26
  br i1 %exitcond.not, label %.loopexit, label %3, !llvm.loop !46

3:                                                ; preds = %.lr.ph
  %4 = getelementptr inbounds nuw [27 x %struct.anon], ptr @rtp_payload_types, i64 0, i64 %indvars.iv.next
  %5 = load i32, ptr %4, align 4, !tbaa !24
  %6 = icmp eq i32 %5, %0
  br i1 %6, label %._crit_edge, label %.lr.ph, !llvm.loop !46

._crit_edge:                                      ; preds = %3, %1
  %.lcssa = phi ptr [ @rtp_payload_types, %1 ], [ %4, %3 ]
  %7 = getelementptr inbounds nuw i8, ptr %.lcssa, i64 4
  br label %.loopexit

.loopexit:                                        ; preds = %.lr.ph, %._crit_edge
  %.05 = phi ptr [ %7, %._crit_edge ], [ @.str.3, %.lr.ph ]
  ret ptr %.05
}